target datalayout = "e-m:e-p270:32:32-p271:32:32-p272:64:64-i64:64-i128:128-f80:128-n8:16:32:64-S128"
target triple = "x86_64-pc-linux-gnu"

%struct.jpeg_compress_struct = type { ptr, ptr, ptr, ptr, i32, i32, ptr, i32, i32, i32, i32, double, i32, i32, i32, ptr, [4 x ptr], [4 x ptr], [4 x ptr], [16 x i8], [16 x i8], [16 x i8], i32, ptr, i32, i32, i32, i32, i32, i32, i32, i32, i32, i8, i8, i8, i16, i16, i32, i32, i32, i32, i32, i32, i32, [4 x ptr], i32, i32, i32, [10 x i32], i32, i32, i32, i32, ptr, ptr, ptr, ptr, ptr, ptr, ptr, ptr, ptr, ptr, i32 }
%struct.jpeg_memory_mgr = type { ptr, ptr, ptr, ptr, ptr, ptr, ptr, ptr, ptr, ptr, ptr, i64, i64 }
%struct.gif_source_struct = type { %struct.cjpeg_source_struct, ptr, ptr, [260 x i8], i32, i32, i32, i32, i32, i32, i32, i32, i32, i32, i32, i32, i32, ptr, ptr, ptr, ptr, i32, ptr, i32, i32, i32, i32 }
%struct.cjpeg_source_struct = type { ptr, ptr, ptr, ptr, ptr, ptr, ptr, i32, i32 }

; Function Attrs: nounwind uwtable
define internal i32 @get_interlaced_row(ptr noundef %0, ptr noundef %1) #0 {
  %3 = alloca ptr, align 8
  %4 = alloca ptr, align 8
  %5 = alloca ptr, align 8
  %6 = alloca i32, align 4
  %7 = alloca ptr, align 8
  %8 = alloca ptr, align 8
  %9 = alloca i32, align 4
  %10 = alloca ptr, align 8
  %11 = alloca i32, align 4
  store ptr %0, ptr %3, align 8, !tbaa !4
  store ptr %1, ptr %4, align 8, !tbaa !49
  call void @llvm.lifetime.start.p0(i64 8, ptr %5) #3
  %12 = load ptr, ptr %4, align 8, !tbaa !49
  store ptr %12, ptr %5, align 8, !tbaa !37
  call void @llvm.lifetime.start.p0(i64 4, ptr %6) #3
  call void @llvm.lifetime.start.p0(i64 8, ptr %7) #3
  call void @llvm.lifetime.start.p0(i64 8, ptr %8) #3
  call void @llvm.lifetime.start.p0(i64 4, ptr %9) #3
  call void @llvm.lifetime.start.p0(i64 8, ptr %10) #3
  %13 = load ptr, ptr %5, align 8, !tbaa !37
  %14 = getelementptr inbounds nuw %struct.gif_source_struct, ptr %13, i32 0, i32 2
  %15 = load ptr, ptr %14, align 8, !tbaa !58
  store ptr %15, ptr %10, align 8, !tbaa !84
  call void @llvm.lifetime.start.p0(i64 4, ptr %11) #3
  %16 = load ptr, ptr %5, align 8, !tbaa !37
  %17 = getelementptr inbounds nuw %struct.gif_source_struct, ptr %16, i32 0, i32 23
  %18 = load i32, ptr %17, align 8, !tbaa !100
  %19 = and i32 %18, 7
  switch i32 %19, label %43 [
    i32 0, label %20
    i32 4, label %25
    i32 2, label %34
    i32 6, label %34
  ]

20:                                               ; preds = %2
  %21 = load ptr, ptr %5, align 8, !tbaa !37
  %22 = getelementptr inbounds nuw %struct.gif_source_struct, ptr %21, i32 0, i32 23
  %23 = load i32, ptr %22, align 8, !tbaa !100
  %24 = lshr i32 %23, 3
  store i32 %24, ptr %11, align 4, !tbaa !54
  br label %52

25:                                               ; preds = %2
  %26 = load ptr, ptr %5, align 8, !tbaa !37
  %27 = getelementptr inbounds nuw %struct.gif_source_struct, ptr %26, i32 0, i32 23
  %28 = load i32, ptr %27, align 8, !tbaa !100
  %29 = lshr i32 %28, 3
  %30 = load ptr, ptr %5, align 8, !tbaa !37
  %31 = getelementptr inbounds nuw %struct.gif_source_struct, ptr %30, i32 0, i32 24
  %32 = load i32, ptr %31, align 4, !tbaa !101
  %33 = add i32 %29, %32
  store i32 %33, ptr %11, align 4, !tbaa !54
  br label %52

34:                                               ; preds = %2, %2
  %35 = load ptr, ptr %5, align 8, !tbaa !37
  %36 = getelementptr inbounds nuw %struct.gif_source_struct, ptr %35, i32 0, i32 23
  %37 = load i32, ptr %36, align 8, !tbaa !100
  %38 = lshr i32 %37, 2
  %39 = load ptr, ptr %5, align 8, !tbaa !37
  %40 = getelementptr inbounds nuw %struct.gif_source_struct, ptr %39, i32 0, i32 25
  %41 = load i32, ptr %40, align 8, !tbaa !102
  %42 = add i32 %38, %41
  store i32 %42, ptr %11, align 4, !tbaa !54
  br label %52

43:                                               ; preds = %2
  %44 = load ptr, ptr %5, align 8, !tbaa !37
  %45 = getelementptr inbounds nuw %struct.gif_source_struct, ptr %44, i32 0, i32 23
  %46 = load i32, ptr %45, align 8, !tbaa !100
  %47 = lshr i32 %46, 1
  %48 = load ptr, ptr %5, align 8, !tbaa !37
  %49 = getelementptr inbounds nuw %struct.gif_source_struct, ptr %48, i32 0, i32 26
  %50 = load i32, ptr %49, align 4, !tbaa !103
  %51 = add i32 %47, %50
  store i32 %51, ptr %11, align 4, !tbaa !54
  br label %52

52:                                               ; preds = %43, %34, %25, %20
  %53 = load ptr, ptr %3, align 8, !tbaa !4
  %54 = getelementptr inbounds nuw %struct.jpeg_compress_struct, ptr %53, i32 0, i32 1
  %55 = load ptr, ptr %54, align 8, !tbaa !34
  %56 = getelementptr inbounds nuw %struct.jpeg_memory_mgr, ptr %55, i32 0, i32 7
  %57 = load ptr, ptr %56, align 8, !tbaa !96
  %58 = load ptr, ptr %3, align 8, !tbaa !4
  %59 = load ptr, ptr %5, align 8, !tbaa !37
  %60 = getelementptr inbounds nuw %struct.gif_source_struct, ptr %59, i32 0, i32 22
  %61 = load ptr, ptr %60, align 8, !tbaa !66
  %62 = load i32, ptr %11, align 4, !tbaa !54
  %63 = call ptr %57(ptr noundef %58, ptr noundef %61, i32 noundef %62, i32 noundef 1, i32 noundef 0)
  %64 = load ptr, ptr %63, align 8, !tbaa !79
  store ptr %64, ptr %7, align 8, !tbaa !79
  %65 = load ptr, ptr %5, align 8, !tbaa !37
  %66 = getelementptr inbounds nuw %struct.gif_source_struct, ptr %65, i32 0, i32 0
  %67 = getelementptr inbounds nuw %struct.cjpeg_source_struct, ptr %66, i32 0, i32 4
  %68 = load ptr, ptr %67, align 8, !tbaa !76
  %69 = getelementptr inbounds ptr, ptr %68, i64 0
  %70 = load ptr, ptr %69, align 8, !tbaa !79
  store ptr %70, ptr %8, align 8, !tbaa !79
  %71 = load ptr, ptr %3, align 8, !tbaa !4
  %72 = getelementptr inbounds nuw %struct.jpeg_compress_struct, ptr %71, i32 0, i32 10
  %73 = load i32, ptr %72, align 4, !tbaa !74
  %74 = icmp eq i32 %73, 1
  br i1 %74, label %75, label %100

75:                                               ; preds = %52
  %76 = load ptr, ptr %3, align 8, !tbaa !4
  %77 = getelementptr inbounds nuw %struct.jpeg_compress_struct, ptr %76, i32 0, i32 7
  %78 = load i32, ptr %77, align 8, !tbaa !82
  store i32 %78, ptr %9, align 4, !tbaa !54
  br label %79

79:                                               ; preds = %96, %75
  %80 = load i32, ptr %9, align 4, !tbaa !54
  %81 = icmp ugt i32 %80, 0
  br i1 %81, label %82, label %99

82:                                               ; preds = %79
  %83 = load ptr, ptr %7, align 8, !tbaa !79
  %84 = getelementptr inbounds nuw i8, ptr %83, i32 1
  store ptr %84, ptr %7, align 8, !tbaa !79
  %85 = load i8, ptr %83, align 1, !tbaa !32
  %86 = zext i8 %85 to i32
  store i32 %86, ptr %6, align 4, !tbaa !54
  %87 = load ptr, ptr %10, align 8, !tbaa !84
  %88 = getelementptr inbounds ptr, ptr %87, i64 0
  %89 = load ptr, ptr %88, align 8, !tbaa !79
  %90 = load i32, ptr %6, align 4, !tbaa !54
  %91 = sext i32 %90 to i64
  %92 = getelementptr inbounds i8, ptr %89, i64 %91
  %93 = load i8, ptr %92, align 1, !tbaa !32
  %94 = load ptr, ptr %8, align 8, !tbaa !79
  %95 = getelementptr inbounds nuw i8, ptr %94, i32 1
  store ptr %95, ptr %8, align 8, !tbaa !79
  store i8 %93, ptr %94, align 1, !tbaa !32
  br label %96

96:                                               ; preds = %82
  %97 = load i32, ptr %9, align 4, !tbaa !54
  %98 = add i32 %97, -1
  store i32 %98, ptr %9, align 4, !tbaa !54
  br label %79, !llvm.loop !116

99:                                               ; preds = %79
  br label %143

100:                                              ; preds = %52
  %101 = load ptr, ptr %3, align 8, !tbaa !4
  %102 = getelementptr inbounds nuw %struct.jpeg_compress_struct, ptr %101, i32 0, i32 7
  %103 = load i32, ptr %102, align 8, !tbaa !82
  store i32 %103, ptr %9, align 4, !tbaa !54
  br label %104

104:                                              ; preds = %139, %100
  %105 = load i32, ptr %9, align 4, !tbaa !54
  %106 = icmp ugt i32 %105, 0
  br i1 %106, label %107, label %142

107:                                              ; preds = %104
  %108 = load ptr, ptr %7, align 8, !tbaa !79
  %109 = getelementptr inbounds nuw i8, ptr %108, i32 1
  store ptr %109, ptr %7, align 8, !tbaa !79
  %110 = load i8, ptr %108, align 1, !tbaa !32
  %111 = zext i8 %110 to i32
  store i32 %111, ptr %6, align 4, !tbaa !54
  %112 = load ptr, ptr %10, align 8, !tbaa !84
  %113 = getelementptr inbounds ptr, ptr %112, i64 0
  %114 = load ptr, ptr %113, align 8, !tbaa !79
  %115 = load i32, ptr %6, align 4, !tbaa !54
  %116 = sext i32 %115 to i64
  %117 = getelementptr inbounds i8, ptr %114, i64 %116
  %118 = load i8, ptr %117, align 1, !tbaa !32
  %119 = load ptr, ptr %8, align 8, !tbaa !79
  %120 = getelementptr inbounds nuw i8, ptr %119, i32 1
  store ptr %120, ptr %8, align 8, !tbaa !79
  store i8 %118, ptr %119, align 1, !tbaa !32
  %121 = load ptr, ptr %10, align 8, !tbaa !84
  %122 = getelementptr inbounds ptr, ptr %121, i64 1
  %123 = load ptr, ptr %122, align 8, !tbaa !79
  %124 = load i32, ptr %6, align 4, !tbaa !54
  %125 = sext i32 %124 to i64
  %126 = getelementptr inbounds i8, ptr %123, i64 %125
  %127 = load i8, ptr %126, align 1, !tbaa !32
  %128 = load ptr, ptr %8, align 8, !tbaa !79
  %129 = getelementptr inbounds nuw i8, ptr %128, i32 1
  store ptr %129, ptr %8, align 8, !tbaa !79
  store i8 %127, ptr %128, align 1, !tbaa !32
  %130 = load ptr, ptr %10, align 8, !tbaa !84
  %131 = getelementptr inbounds ptr, ptr %130, i64 2
  %132 = load ptr, ptr %131, align 8, !tbaa !79
  %133 = load i32, ptr %6, align 4, !tbaa !54
  %134 = sext i32 %133 to i64
  %135 = getelementptr inbounds i8, ptr %132, i64 %134
  %136 = load i8, ptr %135, align 1, !tbaa !32
  %137 = load ptr, ptr %8, align 8, !tbaa !79
  %138 = getelementptr inbounds nuw i8, ptr %137, i32 1
  store ptr %138, ptr %8, align 8, !tbaa !79
  store i8 %136, ptr %137, align 1, !tbaa !32
  br label %139

139:                                              ; preds = %107
  %140 = load i32, ptr %9, align 4, !tbaa !54
  %141 = add i32 %140, -1
  store i32 %141, ptr %9, align 4, !tbaa !54
  br label %104, !llvm.loop !117

142:                                              ; preds = %104
  br label %143

143:                                              ; preds = %142, %99
  %144 = load ptr, ptr %5, align 8, !tbaa !37
  %145 = getelementptr inbounds nuw %struct.gif_source_struct, ptr %144, i32 0, i32 23
  %146 = load i32, ptr %145, align 8, !tbaa !100
  %147 = add i32 %146, 1
  store i32 %147, ptr %145, align 8, !tbaa !100
  call void @llvm.lifetime.end.p0(i64 4, ptr %11) #3
  call void @llvm.lifetime.end.p0(i64 8, ptr %10) #3
  call void @llvm.lifetime.end.p0(i64 4, ptr %9) #3
  call void @llvm.lifetime.end.p0(i64 8, ptr %8) #3
  call void @llvm.lifetime.end.p0(i64 8, ptr %7) #3
  call void @llvm.lifetime.end.p0(i64 4, ptr %6) #3
  call void @llvm.lifetime.end.p0(i64 8, ptr %5) #3
  ret i32 1
}