; Function Attrs: nounwind uwtable
define internal noundef i32 @get_interlaced_row(ptr noundef %0, ptr noundef captures(none) %1) #0 {
  %3 = getelementptr inbounds nuw i8, ptr %1, i64 72
  %4 = load ptr, ptr %3, align 8, !tbaa !52
  %5 = getelementptr inbounds nuw i8, ptr %1, i64 440
  %6 = load i32, ptr %5, align 8, !tbaa !95
  %7 = and i32 %6, 7
  switch i32 %7, label %20 [
    i32 0, label %8
    i32 4, label %10
    i32 2, label %15
    i32 6, label %15
  ]

8:                                                ; preds = %2
  %9 = lshr i32 %6, 3
  br label %25

10:                                               ; preds = %2
  %11 = lshr i32 %6, 3
  %12 = getelementptr inbounds nuw i8, ptr %1, i64 444
  %13 = load i32, ptr %12, align 4, !tbaa !96
  %14 = add i32 %13, %11
  br label %25

15:                                               ; preds = %2, %2
  %16 = lshr i32 %6, 2
  %17 = getelementptr inbounds nuw i8, ptr %1, i64 448
  %18 = load i32, ptr %17, align 8, !tbaa !97
  %19 = add i32 %18, %16
  br label %25

20:                                               ; preds = %2
  %21 = lshr i32 %6, 1
  %22 = getelementptr inbounds nuw i8, ptr %1, i64 452
  %23 = load i32, ptr %22, align 4, !tbaa !98
  %24 = add i32 %23, %21
  br label %25

25:                                               ; preds = %20, %15, %10, %8
  %.0 = phi i32 [ %24, %20 ], [ %19, %15 ], [ %14, %10 ], [ %9, %8 ]
  %26 = getelementptr inbounds nuw i8, ptr %0, i64 8
  %27 = load ptr, ptr %26, align 8, !tbaa !32
  %28 = getelementptr inbounds nuw i8, ptr %27, i64 56
  %29 = load ptr, ptr %28, align 8, !tbaa !88
  %30 = getelementptr inbounds nuw i8, ptr %1, i64 432
  %31 = load ptr, ptr %30, align 8, !tbaa !73
  %32 = tail call ptr %29(ptr noundef %0, ptr noundef %31, i32 noundef %.0, i32 noundef 1, i32 noundef 0) #4
  %33 = load ptr, ptr %32, align 8, !tbaa !83
  %34 = getelementptr inbounds nuw i8, ptr %1, i64 32
  %35 = load ptr, ptr %34, align 8, !tbaa !81
  %36 = load ptr, ptr %35, align 8, !tbaa !83
  %37 = getelementptr inbounds nuw i8, ptr %0, i64 60
  %38 = load i32, ptr %37, align 4, !tbaa !79
  %39 = icmp eq i32 %38, 1
  %40 = getelementptr inbounds nuw i8, ptr %0, i64 48
  %41 = load i32, ptr %40, align 8, !tbaa !85
  %.not4147 = icmp eq i32 %41, 0
  br i1 %39, label %42, label %51

42:                                               ; preds = %25
  br i1 %.not4147, label %.loopexit, label %.lr.ph51

.lr.ph51:                                         ; preds = %42, %.lr.ph51
  %.03650 = phi i32 [ %50, %.lr.ph51 ], [ %41, %42 ]
  %.03749 = phi ptr [ %49, %.lr.ph51 ], [ %36, %42 ]
  %.03948 = phi ptr [ %43, %.lr.ph51 ], [ %33, %42 ]
  %43 = getelementptr inbounds nuw i8, ptr %.03948, i64 1
  %44 = load i8, ptr %.03948, align 1, !tbaa !30
  %45 = load ptr, ptr %4, align 8, !tbaa !83
  %46 = zext i8 %44 to i64
  %47 = getelementptr inbounds nuw i8, ptr %45, i64 %46
  %48 = load i8, ptr %47, align 1, !tbaa !30
  %49 = getelementptr inbounds nuw i8, ptr %.03749, i64 1
  store i8 %48, ptr %.03749, align 1, !tbaa !30
  %50 = add i32 %.03650, -1
  %.not41 = icmp eq i32 %50, 0
  br i1 %.not41, label %.loopexit, label %.lr.ph51, !llvm.loop !106

51:                                               ; preds = %25
  br i1 %.not4147, label %.loopexit, label %.lr.ph

.lr.ph:                                           ; preds = %51
  %52 = getelementptr inbounds nuw i8, ptr %4, i64 8
  %53 = getelementptr inbounds nuw i8, ptr %4, i64 16
  br label %54

54:                                               ; preds = %.lr.ph, %54
  %.146 = phi i32 [ %41, %.lr.ph ], [ %70, %54 ]
  %.13845 = phi ptr [ %36, %.lr.ph ], [ %69, %54 ]
  %.14044 = phi ptr [ %33, %.lr.ph ], [ %55, %54 ]
  %55 = getelementptr inbounds nuw i8, ptr %.14044, i64 1
  %56 = load i8, ptr %.14044, align 1, !tbaa !30
  %57 = load ptr, ptr %4, align 8, !tbaa !83
  %58 = zext i8 %56 to i64
  %59 = getelementptr inbounds nuw i8, ptr %57, i64 %58
  %60 = load i8, ptr %59, align 1, !tbaa !30
  %61 = getelementptr inbounds nuw i8, ptr %.13845, i64 1
  store i8 %60, ptr %.13845, align 1, !tbaa !30
  %62 = load ptr, ptr %52, align 8, !tbaa !83
  %63 = getelementptr inbounds nuw i8, ptr %62, i64 %58
  %64 = load i8, ptr %63, align 1, !tbaa !30
  %65 = getelementptr inbounds nuw i8, ptr %.13845, i64 2
  store i8 %64, ptr %61, align 1, !tbaa !30
  %66 = load ptr, ptr %53, align 8, !tbaa !83
  %67 = getelementptr inbounds nuw i8, ptr %66, i64 %58
  %68 = load i8, ptr %67, align 1, !tbaa !30
  %69 = getelementptr inbounds nuw i8, ptr %.13845, i64 3
  store i8 %68, ptr %65, align 1, !tbaa !30
  %70 = add i32 %.146, -1
  %.not = icmp eq i32 %70, 0
  br i1 %.not, label %.loopexit, label %54, !llvm.loop !107

.loopexit:                                        ; preds = %54, %.lr.ph51, %51, %42
  %71 = load i32, ptr %5, align 8, !tbaa !95
  %72 = add i32 %71, 1
  store i32 %72, ptr %5, align 8, !tbaa !95
  ret i32 1
}